(dp0
S'x_vals'
p1
(lp2
F2.858429118773947
aF3.337356321839081
aF1.8431034482758626
aF2.322030651340997
asS'y_vals'
p3
(lp4
F11.654586349285212
aF12.564316646005095
aF11.857612309354426
aF12.79094107774064
asS'z_vals'
p5
(lp6
I10
aI7
aI31
aI49
as.